target datalayout = "e-m:e-p270:32:32-p271:32:32-p272:64:64-i64:64-i128:128-f80:128-n8:16:32:64-S128"
target triple = "x86_64-pc-linux-gnu"

%struct.reassembly_table = type { ptr, ptr, ptr, ptr, ptr }
%struct.reassembly_table_functions = type { ptr, ptr, ptr, ptr, ptr, ptr }

@proto_register_usbll.ett = internal global [3 x ptr] [ptr @ett_usbll, ptr @ett_usbll_transfer_fragment, ptr @ett_usbll_transfer_fragments], align 16
@transfer_info = internal global ptr null, align 8
@.str.98 = private unnamed_addr constant [15 x i8] c"USB Link Layer\00", align 1
@.str.99 = private unnamed_addr constant [6 x i8] c"USBLL\00", align 1
@.str.100 = private unnamed_addr constant [6 x i8] c"usbll\00", align 1
@proto_usbll = internal global i32 0, align 4
@.str.101 = private unnamed_addr constant [37 x i8] c"global_pref_dissect_unknown_speed_as\00", align 1
@.str.102 = private unnamed_addr constant [32 x i8] c"Decode unknown speed packets as\00", align 1
@.str.103 = private unnamed_addr constant [57 x i8] c"Use specified speed if speed is not indicated in capture\00", align 1
@global_dissect_unknown_speed_as = internal global i32 0, align 4
@unknown_speed_handle = internal global ptr null, align 8
@.str.104 = private unnamed_addr constant [16 x i8] c"usbll.low_speed\00", align 1
@low_speed_handle = internal global ptr null, align 8
@.str.105 = private unnamed_addr constant [17 x i8] c"usbll.full_speed\00", align 1
@full_speed_handle = internal global ptr null, align 8
@.str.106 = private unnamed_addr constant [17 x i8] c"usbll.high_speed\00", align 1
@high_speed_handle = internal global ptr null, align 8
@.str.107 = private unnamed_addr constant [9 x i8] c"AT_USBLL\00", align 1
@.str.108 = private unnamed_addr constant [14 x i8] c"USBLL Address\00", align 1
@usbll_address_type = internal global i32 -1, align 4
@usbll_reassembly_table = internal global %struct.reassembly_table zeroinitializer, align 8
@usbll_reassembly_table_functions = internal constant %struct.reassembly_table_functions { ptr @usbll_fragment_key_hash, ptr @usbll_fragment_key_equal, ptr @usbll_fragment_key, ptr @usbll_fragment_key, ptr @usbll_fragment_free_key, ptr @usbll_fragment_free_key }, align 8

; Function Attrs: null_pointer_is_valid sspstrong uwtable
define hidden void @proto_register_usbll() #0 {
  %1 = alloca ptr, align 8
  %2 = alloca ptr, align 8
  call void @llvm.lifetime.start.p0(i64 8, ptr %1) #11
  call void @llvm.lifetime.start.p0(i64 8, ptr %2) #11
  %3 = call ptr @wmem_epan_scope()
  %4 = call ptr @wmem_file_scope()
  %5 = call noalias ptr @wmem_map_new_autoreset(ptr noundef %3, ptr noundef %4, ptr noundef @g_direct_hash, ptr noundef @g_direct_equal)
  store ptr %5, ptr @transfer_info, align 8
  %6 = call i32 @proto_register_protocol(ptr noundef @.str.98, ptr noundef @.str.99, ptr noundef @.str.100)
  store i32 %6, ptr @proto_usbll, align 4
  %7 = load i32, ptr @proto_usbll, align 4
  call void @proto_register_field_array(i32 noundef %7, ptr noundef @proto_register_usbll.hf, i32 noundef 37)
  call void @proto_register_subtree_array(ptr noundef @proto_register_usbll.ett, i32 noundef 3)
  %8 = load i32, ptr @proto_usbll, align 4
  %9 = call ptr @expert_register_protocol(i32 noundef %8)
  store ptr %9, ptr %2, align 8
  %10 = load ptr, ptr %2, align 8
  call void @expert_register_field_array(ptr noundef %10, ptr noundef @proto_register_usbll.ei, i32 noundef 11)
  %11 = load i32, ptr @proto_usbll, align 4
  %12 = call ptr @prefs_register_protocol(i32 noundef %11, ptr noundef null)
  store ptr %12, ptr %1, align 8
  %13 = load ptr, ptr %1, align 8
  call void @prefs_register_enum_preference(ptr noundef %13, ptr noundef @.str.101, ptr noundef @.str.102, ptr noundef @.str.103, ptr noundef @global_dissect_unknown_speed_as, ptr noundef @dissect_unknown_speed_as, i1 noundef zeroext false)
  %14 = load i32, ptr @proto_usbll, align 4
  %15 = call ptr @register_dissector(ptr noundef @.str.100, ptr noundef @dissect_usbll_unknown_speed, i32 noundef %14)
  store ptr %15, ptr @unknown_speed_handle, align 8
  %16 = load i32, ptr @proto_usbll, align 4
  %17 = call ptr @register_dissector(ptr noundef @.str.104, ptr noundef @dissect_usbll_low_speed, i32 noundef %16)
  store ptr %17, ptr @low_speed_handle, align 8
  %18 = load i32, ptr @proto_usbll, align 4
  %19 = call ptr @register_dissector(ptr noundef @.str.105, ptr noundef @dissect_usbll_full_speed, i32 noundef %18)
  store ptr %19, ptr @full_speed_handle, align 8
  %20 = load i32, ptr @proto_usbll, align 4
  %21 = call ptr @register_dissector(ptr noundef @.str.106, ptr noundef @dissect_usbll_high_speed, i32 noundef %20)
  store ptr %21, ptr @high_speed_handle, align 8
  call void @register_cleanup_routine(ptr noundef @usbll_cleanup_data)
  %22 = call i32 @address_type_dissector_register(ptr noundef @.str.107, ptr noundef @.str.108, ptr noundef @usbll_addr_to_str, ptr noundef @usbll_addr_str_len, ptr noundef null, ptr noundef null, ptr noundef null, ptr noundef null, ptr noundef null)
  store i32 %22, ptr @usbll_address_type, align 4
  call void @reassembly_table_register(ptr noundef @usbll_reassembly_table, ptr noundef @usbll_reassembly_table_functions)
  call void @llvm.lifetime.end.p0(i64 8, ptr %2) #11
  call void @llvm.lifetime.end.p0(i64 8, ptr %1) #11
  ret void
}