; Function Attrs: null_pointer_is_valid sspstrong uwtable
define hidden void @proto_register_usbll() local_unnamed_addr #2 {
  %1 = tail call ptr @wmem_epan_scope()
  %2 = tail call ptr @wmem_file_scope()
  %3 = tail call noalias ptr @wmem_map_new_autoreset(ptr noundef %1, ptr noundef %2, ptr noundef nonnull @g_direct_hash, ptr noundef nonnull @g_direct_equal)
  store ptr %3, ptr @transfer_info, align 8
  %4 = tail call i32 @proto_register_protocol(ptr noundef nonnull @.str.98, ptr noundef nonnull @.str.99, ptr noundef nonnull @.str.100)
  store i32 %4, ptr @proto_usbll, align 4
  tail call void @proto_register_field_array(i32 noundef %4, ptr noundef nonnull @proto_register_usbll.hf, i32 noundef 37)
  tail call void @proto_register_subtree_array(ptr noundef nonnull @proto_register_usbll.ett, i32 noundef 3)
  %5 = load i32, ptr @proto_usbll, align 4
  %6 = tail call ptr @expert_register_protocol(i32 noundef %5)
  tail call void @expert_register_field_array(ptr noundef %6, ptr noundef nonnull @proto_register_usbll.ei, i32 noundef 11)
  %7 = load i32, ptr @proto_usbll, align 4
  %8 = tail call ptr @prefs_register_protocol(i32 noundef %7, ptr noundef null)
  tail call void @prefs_register_enum_preference(ptr noundef %8, ptr noundef nonnull @.str.101, ptr noundef nonnull @.str.102, ptr noundef nonnull @.str.103, ptr noundef nonnull @global_dissect_unknown_speed_as, ptr noundef nonnull @dissect_unknown_speed_as, i1 noundef zeroext false)
  %9 = load i32, ptr @proto_usbll, align 4
  %10 = tail call ptr @register_dissector(ptr noundef nonnull @.str.100, ptr noundef nonnull @dissect_usbll_unknown_speed, i32 noundef %9)
  store ptr %10, ptr @unknown_speed_handle, align 8
  %11 = load i32, ptr @proto_usbll, align 4
  %12 = tail call ptr @register_dissector(ptr noundef nonnull @.str.104, ptr noundef nonnull @dissect_usbll_low_speed, i32 noundef %11)
  store ptr %12, ptr @low_speed_handle, align 8
  %13 = load i32, ptr @proto_usbll, align 4
  %14 = tail call ptr @register_dissector(ptr noundef nonnull @.str.105, ptr noundef nonnull @dissect_usbll_full_speed, i32 noundef %13)
  store ptr %14, ptr @full_speed_handle, align 8
  %15 = load i32, ptr @proto_usbll, align 4
  %16 = tail call ptr @register_dissector(ptr noundef nonnull @.str.106, ptr noundef nonnull @dissect_usbll_high_speed, i32 noundef %15)
  store ptr %16, ptr @high_speed_handle, align 8
  tail call void @register_cleanup_routine(ptr noundef nonnull @usbll_cleanup_data)
  %17 = tail call i32 @address_type_dissector_register(ptr noundef nonnull @.str.107, ptr noundef nonnull @.str.108, ptr noundef nonnull @usbll_addr_to_str, ptr noundef nonnull @usbll_addr_str_len, ptr noundef null, ptr noundef null, ptr noundef null, ptr noundef null, ptr noundef null)
  store i32 %17, ptr @usbll_address_type, align 4
  tail call void @reassembly_table_register(ptr noundef nonnull @usbll_reassembly_table, ptr noundef nonnull @usbll_reassembly_table_functions)
  ret void
}